(lp0
S'A\xc5\x9fk\xc4\xb1n Tuna'
p1
aS'Ab\xc5\xab Na\xe1\xb9\xa3r Mu\xe1\xb8\xa5ammad al-F\xc4\x81r\xc4\x81b\xc4\xab'
p2
aS'Abderrahim Souiri'
p3
aS'Adambakkam K. Shankar'
p4
aS'Adamo'
p5
aS'Adem \xc5\x9eahin'
p6
aS'Ahmet Feyzi Bey'
p7
aS'Ahmet M\xc3\xbckerrem Ak\xc4\xb1nc\xc4\xb1'
p8
aS'Ahmet Rasim Bey'
p9
aS'Ahmet Refik Alt\xc4\xb1nay'
p10
aS'Ahmet Sedat \xc3\x96ztoprak'
p11
aS'Ahmet Sel\xc3\xa7uk \xc4\xb0lkan'
p12
aS'Ajoy Chakraborty'
p13
aS'Alaaddin \xc5\x9eensoy'
p14
aS'Alandur S. Natarajan'
p15
aS'Alathur Brothers'
p16
aS'Al\xc3\xa2eddin Yava\xc5\x9fca'
p17
aS'Aleko Bacanos Efendi'
p18
aS'Ali \xc4\xb0hsan K\xc4\xb1sa\xc3\xa7'
p19
aS'Ali Nazmi Y\xc3\xbckselen'
p20
aS'Ali Selami'
p21
aS'Ali Sel\xc3\xa7uk \xc3\x96zg\xc3\xbcrdal'
p22
aS'Ali Tekint\xc3\xbcre'
p23
aS'Alla Rakha'
p24
aS'Amita Sinha'
p25
aS'Anai Vaidhyanathan Iyer'
p26
aS'Andal'
p27
aS'Aneesh Vidyashankar'
p28
aS'Annamacharya'
p29
aS'Appa Jalgaonkar'
p30
aS'Ariyakudi Ramanuja Iyengar'
p31
aS'Arslan Tun\xc3\xa7ata'
p32
aS'Arunagirinathar'
p33
aS'Arvind Thatte'
p34
aS'Asdik A\xc4\x9fa'
p35
aS'Ashwini Apte'
p36
aS'Avni An\xc4\xb1l'
p37
aS'Ayfer Er'
p38
aS'Aysel G\xc3\xbcrel'
p39
aS'\xc5\x9eahap G\xc3\xbcrsel'
p40
aS'\xc5\x9eehzade Sultan Korkud'
p41
aS'\xc5\x9eer\xc3\xa2fettin Ayd\xc4\xb1nl\xc4\xb1k'
p42
aS'\xc5\x9eerif \xc4\xb0\xc3\xa7li'
p43
aS'\xc5\x9eerif \xc3\x87elebi'
p44
aS'\xc5\x9eeyda Temu\xc3\xa7in'
p45
aS'\xc4\xb0lg\xc3\xbcn Soysev'
p46
aS'\xc4\xb0lhan Behl\xc3\xbcl Pekta\xc5\x9f'
p47
aS'\xc4\xb0lkan San'
p48
aS'\xc4\xb0lter Ye\xc5\x9filay'
p49
aS'\xc4\xb0rtic\xc3\xa2l Dede'
p50
aS'\xc4\xb0smail \xc5\x9een\xc3\xa7alar'
p51
aS'\xc4\xb0sm\xc3\xa2il Baha S\xc3\xbcrelsan'
p52
aS'\xc4\xb0stanbul Sazendeleri'
p53
aS'\xe0\xb0\xa4\xe0\xb1\x8d\xe0\xb0\xaf\xe0\xb0\xbe\xe0\xb0\x97\xe0\xb0\xb0\xe0\xb0\xbe\xe0\xb0\x9c'
p54
aS'\xe0\xb2\xaa\xe0\xb3\x81\xe0\xb2\xb0\xe0\xb2\x82\xe0\xb2\xa6\xe0\xb2\xb0 \xe0\xb2\xa6\xe0\xb2\xbe\xe0\xb2\xb8'
p55
aS'\xc3\x9clk\xc3\xbc Erakal\xc4\xb1n'
p56
aS'\xc3\x9cmit Atalay'
p57
aS'\xc3\x96mer Bedrettin U\xc5\x9fakl\xc4\xb1'
p58
aS'\xc3\x96zer \xc5\x9eenay'
p59
aS'\xc3\x87i\xc4\x9fdem Yark\xc4\xb1n'
p60
aS'Baban Manjrekar'
p61
aS'Bahad\xc4\xb1r \xc3\x96z\xc3\xbc\xc5\x9fen'
p62
aS'Bajeddoub & Souiri'
p63
aS'Baki Duyarlar'
p64
aS'Balwant Rai Bhatt'
p65
aS'B\xc3\xa2ki'
p66
aS'Bekir Mutlu'
p67
aS'Belgin G\xc3\xb6k'
p68
aS'Berrin B\xc3\xbcy\xc3\xbck\xc3\xa7\xc4\xb1nar'
p69
aS'Bhimsen Joshi'
p70
aS'Bikram Ghosh'
p71
aS'Bilge \xc3\x96zgen'
p72
aS'Bombay Jayashri'
p73
aS'Bosphorus'
p74
aS'Buhurizade Mustafa Itri Efendi'
p75
aS'C. Cheluvaraju'
p76
aS'Canan Sezgin Geylan'
p77
aS'Caner Alt\xc4\xb1nba\xc5\x9f'
p78
aS'Cem Karaca'
p79
aS'Cemal Safi'
p80
aS'Cengiz Erc\xc3\xbcmer'
p81
aS'Cengizhan S\xc3\xb6nmez'
p82
aS'Chiranjib Chakraborty'
p83
aS'Chittibabu'
p84
aS'Chorus'
p85
aS'Co\xc5\x9fkun Sabah'
p86
aS'D. K. Jayaraman'
p87
aS'Dayanand Mohite'
p88
aS'Dede Efendi'
p89
aS'Derya T\xc3\xbcrkan'
p90
aS'Derya T\xc3\xbcrkan, \xc3\x96zer \xc3\x96zel'
p91
aS'Doraswamy Iyer'
p92
aS'Dursun Karaca'
p93
aS'E Gayathri'
p94
aS'Elif G\xc3\xbcre\xc5\x9f\xc3\xa7i \xc3\x87ift\xc3\xa7io\xc4\x9flu'
p95
aS'Embar S. Kannan'
p96
aS'Emrullah \xc5\x9eeng\xc3\xbcler'
p97
aS'Erkan Y\xc3\xbcksel'
p98
aS'Erol Sayan'
p99
aS'Esat Tekdal'
p100
aS'Esma Ba\xc5\x9fbu\xc4\x9f'
p101
aS'Ethem Adnan Ergil'
p102
aS'Ethem Pertev Pa\xc5\x9fa'
p103
aS'Eyy\xc3\xbbb\xc3\xae Mehmed \xc3\x87elebi'
p104
aS'Faruk Salgar'
p105
aS'F\xc4\xb1tnat Duyar'
p106
aS'Fehmi Tokay'
p107
aS'Ferhadi'
p108
aS'Fethi Karamahmuto\xc4\x9flu'
p109
aS'Filiz \xc5\x9eat\xc4\xb1ro\xc4\x9flu'
p110
aS'Funda S\xc3\xbcy\xc3\xbcr'
p111
aS'G Harishankar'
p112
aS'G. J. R. Krishnan'
p113
aS'G. N. Balasubramaniam'
p114
aS'Gamze Ege K\xc3\xb6prek'
p115
aS'Ganapathi Sachchidananda'
p116
aS'Ganesh - Kumaresh'
p117
aS'Garbhapurivasa'
p118
aS'Gazi Giray Han'
p119
aS'G\xc3\xb6ksel Baktagir'
p120
aS'G\xc3\xbcl Yaz\xc4\xb1c\xc4\xb1'
p121
aS'G\xc3\xbcler Basu \xc5\x9een'
p122
aS'G\xc3\xbczide Tarano\xc4\x9flu'
p123
aS'Geeta Balsara'
p124
aS'Girija Devi'
p125
aS'Govind Patwardhan'
p126
aS'Gundecha Brothers'
p127
aS'Guruvayur Dorai'
p128
aS'H. N. Bhaskar'
p129
aS'Hac\xc4\xb1 Arif Bey'
p130
aS'Haf\xc4\xb1z H\xc3\xbcseyin H\xc3\xbcsn\xc3\xbc'
p131
aS'Haf\xc4\xb1z Kemal Bey'
p132
aS'Halil G\xc3\xb6kkaya'
p133
aS'Halil Karaduman'
p134
aS'Halil Soyuer'
p135
aS'Halit \xc3\x87eliko\xc4\x9flu'
p136
aS'Hariprasad Chaurasia'
p137
aS'Hasan \xc3\x96zdemir'
p138
aS'Hasan Lami Erg\xc3\xbcl'
p139
aS'Haydar Telh\xc3\xbcner'
p140
aS'H\xc3\xbcseyin H\xc3\xbcsn\xc3\xbc \xc3\x9cst\xc3\xbcn'
p141
aS'Hikmet M\xc3\xbcnir Ebcio\xc4\x9flu'
p142
aS'Hyderabad Brothers'
p143
aS'Jayadeva'
p144
aS'Jayalakshmi Sekhar'
p145
aS'K. V. Narayanaswami'
p146
aS'K. V. Prasad'
p147
aS'Kadri Gopalnath'
p148
aS'Kallidaikurichi S. Sivakumar'
p149
aS'Kamal Sabri'
p150
aS'Kamala Chakravarty'
p151
aS'Kanuni Artaki Efendi'
p152
aS'Kaptanizade Ali Riza Bey'
p153
aS'Karaikudi Mani'
p154
aS'Kashinath Bodas'
p155
aS'Katip \xc3\x87elebi'
p156
aS'Kaushiki Chakrabarty'
p157
aS'Kaushiki Desikan'
p158
aS'Kedar Pandit'
p159
aS'Kemal \xc5\x9eakir Yakar'
p160
aS'Keman\xc3\xae H\xc4\xb1z\xc4\xb1r A\xc4\x9fa'
p161
aS'Kem\xc3\xa2l Caba'
p162
aS'Kerem G\xc3\xbcney'
p163
aS'Krishnaswamy Iyer'
p164
aS'Kumar Gandharva'
p165
aS'L. Subramaniam'
p166
aS'Lalgudi Jayaraman'
p167
aS'Laurence Bastit'
p168
aS'Lavtac\xc4\xb1 Hristo Efendi'
p169
aS'L\xc3\xbctfiye \xc3\x96zer'
p170
aS'Leyla Saz'
p171
aS'M. D. Ramanathan'
p172
aS'M. S. Gopalakrishnan'
p173
aS'M.S. Subbulakshmi'
p174
aS'Maharajapuram Santhanam'
p175
aS'Mahmut Nedim G\xc3\xbcntel'
p176
aS'Mahmut O\xc4\x9ful'
p177
aS'Manambuchavadi Venkatasubbaiyer'
p178
aS'Mangalampalli Balamuralikrishna'
p179
aS'Mazhavai Chidambara Bharathi'
p180
aS'M\xc4\xb1s\xc4\xb1rl\xc4\xb1 \xc4\xb0brahim Efendi'
p181
aS'M\xc3\xbczehher Yurdak'
p182
aS'M\xc3\xbczeyyen Senar'
p183
aS'Mehmed Fahri Kopuz'
p184
aS'Mehmet Bilmez'
p185
aS'Mehmet Erbulan'
p186
aS'Mehmet G\xc3\xb6kkaya'
p187
aS'Melda Kuyucu'
p188
aS'Metin Alkanl\xc4\xb1'
p189
aS'Metin Everes'
p190
aS'Muharrem Naci Sayan'
p191
aS'Mungi Ko Furukawa'
p192
aS'Munip Utand\xc4\xb1'
p193
aS'Murat Aydemir'
p194
aS'Mustafa Erses'
p195
aS'Mustafa G\xc3\xbclen'
p196
aS'Mustafa Nafiz Irmak'
p197
aS'Mustafa Sayan'
p198
aS'Muthiah Bhagavatar'
p199
aS'Muthuswamy Dikshitar'
p200
aS'Muthuthandavar'
p201
aS'Muzaffer \xc3\x96zp\xc4\xb1nar'
p202
aS'Mysore Vasudevachar'
p203
aS'N. Ramani'
p204
aS'Nagai Muralidharan'
p205
aS'Nagoor T. S. Ambi Iyer'
p206
aS'Nam\xc4\xb1k Kemal'
p207
aS'Narayana Theerthar'
p208
aS'Nassima'
p209
aS'Nazan S\xc4\xb1vac\xc4\xb1'
p210
aS'Nazif Girgin'
p211
aS'N\xc3\xa2hit Hilmi \xc3\x96zeren'
p212
aS'N\xc3\xbbman A\xc4\x9fa'
p213
aS'Necati Samanc\xc4\xb1'
p214
aS'Necdet Ya\xc5\x9far'
p215
aS'Necdet Ya\xc5\x9far, Ahmet \xc5\x9eahin, Derya T\xc3\xbcrkan, Serdar Bi\xc5\x9firen'
p216
aS'Necdet Ya\xc5\x9far, \xc3\x96zer \xc3\x96zel'
p217
aS'Necdet Ya\xc5\x9far, Ruhi Ayangil'
p218
aS'Necdet Ya\xc5\x9far, Ruhi Ayangil, Ahmet \xc5\x9eahin, Derya T\xc3\xbcrkan, Serdar Bi\xc5\x9firen'
p219
aS'Necmettin Y\xc4\xb1ld\xc4\xb1r\xc4\xb1m'
p220
aS'Nedunuri Krishnamurthy'
p221
aS'Neyzen Aziz Dede'
p222
aS'Neyzen S\xc3\xa2lih Dede'
p223
aS'Niko\xc4\x9fos Ta\xc5\x9fc\xc4\xb1yan'
p224
aS'Nil Burak'
p225
aS'Niladri Kumar'
p226
aS'Nirant Gundecha'
p227
aS'Nureddin R\xc3\xbc\xc5\x9ft\xc3\xbc B\xc3\xbcng\xc3\xbcl'
p228
aS'Nusret Y\xc4\xb1lmaz'
p229
aS'Omar Benamara'
p230
aS'Omkarnath Thakur'
p231
aS'Osman Babu\xc5\x9f\xc3\xa7u'
p232
aS'Osman Nihat Ak\xc4\xb1n'
p233
aS'Osman Nuri \xc3\x96zpekel'
p234
aS'P. S. Narayanaswamy'
p235
aS'P. Unnikrishnan'
p236
aS'Pachimiriyam Adiyappaiah'
p237
aS'Palghat Mani Iyer'
p238
aS'Palghat Sundaram'
p239
aS'Pandit Dinkar Kaikini'
p240
aS'Pandit Jasraj'
p241
aS'Papanasam Sivan'
p242
aS'Patnam Subramania Iyer'
p243
aS'Periyasami Thooran'
p244
aS'Pramod Marathe'
p245
aS'R Lakshminarayan'
p246
aS'R. K. Shriramkumar'
p247
aS'R. K. Srikantan'
p248
aS'R. S. Gopalakrishnan'
p249
aS'Ra\xc3\xbbf Yekt\xc3\xa2 Bey'
p250
aS'Ragan Sharma'
p251
aS'Rahul Sharma'
p252
aS'Rajan Mishra'
p253
aS'Rakesh Chaurasia'
p254
aS'Ramakant Gundecha'
p255
aS'Rangaswami Nattuvanar'
p256
aS'Ranjana Ghatak'
p257
aS'Ravi Shankar'
p258
aS'R\xc4\xb1fat Bey'
p259
aS'Re\xc5\x9fat \xc3\x96zpirin\xc3\xa7\xc3\xa7i'
p260
aS'Refik Fersan Bey'
p261
aS"Refik Tal'\xc3\xa2t Alpman"
p262
aS'Rudrapatnam S. Ramakanth'
p263
aS'Ruhi Ayangil, Ahmet \xc5\x9eahin, Derya T\xc3\xbcrkan, \xc3\x96zer \xc3\x96zel, Serdar Bi\xc5\x9firen'
p264
aS'S Karthick'
p265
aS'S Venkataraman'
p266
aS'S. D. Sridhar'
p267
aS'S. Ramanathan'
p268
aS'S. V. Raghuraman'
p269
aS'S.V.S. Narayanan'
p270
aS'Sa\xc3\xafd Chra\xc3\xafbi'
p271
aS'Sabahattin Ali'
p272
aS'Sad\xc4\xb1k Atay'
p273
aS'Sadettin \xc3\x96ktenay'
p274
aS'Sadi I\xc5\x9f\xc4\xb1lay'
p275
aS'Sait B\xc3\xbcy\xc3\xbck\xc3\xa7\xc4\xb1nar'
p276
aS'Sajan Mishra'
p277
aS'Salih Korkmaz'
p278
aS'Sanjay Subrahmanyan'
p279
aS'Sanjeev Abhyankar'
p280
aS'Sarvar Sabri'
p281
aS'S\xc3\xa2dettin Kaynak'
p282
aS'S\xc3\xa2di Ho\xc5\x9fses'
p283
aS'S\xc3\xbcheyla Eren'
p284
aS'S\xc3\xbcleyman \xc3\x87elebi'
p285
aS'S\xc3\xbcleyman Ta\xc5\x9fp\xc4\xb1narl\xc4\xb1'
p286
aS'Seda G\xc3\xbclbeyaz'
p287
aS'Selahattin \xc4\xb0nal'
p288
aS'Selami \xc5\x9eahin'
p289
aS'Selanikli Ahmet Bey'
p290
aS'Selim G\xc3\xbcler'
p291
aS'Semmangudi Srinivasa Iyer'
p292
aS'Sermet Kutlu\xc4\x9f'
p293
aS'Seyhan \xc3\x87elik'
p294
aS'Seyhan Girginer'
p295
aS'Sezen Aksu'
p296
aS'Shashank'
p297
aS'Shashikant Mulay'
p298
aS'Shivkumar Sharma'
p299
aS'Sikkil Mala Chandrasekhar'
p300
aS'Sowmya'
p301
aS'Suat Say\xc4\xb1n'
p302
aS'Subbaraya Sastry'
p303
aS'Subhash Kamat'
p304
aS'Subramanya Bharati'
p305
aS'Sucheta Kelkar'
p306
aS'Sudha Ragunathan'
p307
aS'Suhail Yusuf Khan'
p308
aS'Sultan I. Mahmud'
p309
aS'Sultan III. Selim'
p310
aS'Sultan IV. Murad'
p311
aS'Sultan Khan'
p312
aS'Swathi Thirunal'
p313
aS'Syama Sastri'
p314
aS'T. Brinda & T. Mukta'
p315
aS'T. K. Murthy'
p316
aS'T. M. Krishna'
p317
aS'T. N. Seshagopalan'
p318
aS'T. Rukmini'
p319
aS'T. V. Gopala Krishnan'
p320
aS'T.N. Krishnan'
p321
aS'Tahir Mukim'
p322
aS'Tanb\xc3\xbbr\xc3\xae B\xc3\xbcy\xc3\xbck Osman Bey'
p323
aS'Tanburi Ali Efendi'
p324
aS'Tanburi \xc4\xb0sak Efendi'
p325
aS'Tanburi Cemil Bey'
p326
aS'Taner \xc5\x9eener'
p327
aS'Taner Demiralp'
p328
aS'Taner Sayac\xc4\xb1o\xc4\x9flu'
p329
aS'Tanju Erol'
p330
aS'Tateos E\xc3\xb1serciyan'
p331
aS'Thetakudi Harihara Vinayakram'
p332
aS'Tirupathi Narayanaswamy'
p333
aS'Tun\xc3\xa7 Kemal'
p334
aS'Turhan \xc3\x96ge'
p335
aS'Turhan Ta\xc5\x9fan'
p336
aS'Udi Nevres Bey'
p337
aS'Udi Yorgo Bacanos'
p338
aS'Umakant Gundecha'
p339
aS'Umayalpuram K. Sivaraman'
p340
aS'Ustad Nasir Faiyazuddin Dagar'
p341
aS'Ustad Nasir Zahiruddin Dagar'
p342
aS'Ustad Sabri Khan'
p343
aS'V Nagarajan'
p344
aS'V. M. Subramaniam'
p345
aS'V. T. Swami'
p346
aS'Vannadil Pudiyaveettil Dhananjayan'
p347
aS'Various Artists'
p348
aS'Vasant Achrekar'
p349
aS'Veena Sahasrabuddhe'
p350
aS'Vellore Ramabhadran'
p351
aS'Vijay Ghate'
p352
aS'Volkan Y\xc4\xb1lmaz'
p353
aS'Vyasa Raya'
p354
aS'Wasifuddin Dagar'
p355
aS'Yahya Berekay'
p356
aS'Yahya Geylan'
p357
aS'Yahya Kemal Beyatl\xc4\xb1'
p358
aS'Yes\xc3\xa2r\xc3\xae \xc3\x82s\xc4\xb1m Arsoy'
p359
aS'Yogesh Samsi'
p360
aS'Yunus Emre'
p361
aS'Yurdal Tokcan'
p362
aS'Yusuf Nalkesen'
p363
aS'Zakir Hussain'
p364
aS'Z\xc3\xbclf\xc3\xbc Livaneli'
p365
aS'Zekai S\xc3\xbcer'
p366
aS'Zekai Tunca'
p367
aS'Zeki \xc3\x82rif Ataergin'
p368
aS'Zeki M\xc3\xbcren'
p369
aS'Ziya Ta\xc5\x9fkent'
p370
aS'Zuhal E\xc4\x9filmez'
p371
aS'Zurnazenba\xc5\x9f\xc4\xb1 \xc4\xb0brahim A\xc4\x9fa'
p372
aS'[anonymous]'
p373
a.